; Function Attrs: mustprogress uwtable
define internal void @_ZN12_GLOBAL__N_116SynthLatticePass11clear_flagsEv(ptr noundef nonnull align 8 dereferenceable(456) %0) unnamed_addr #4 align 2 {
  %2 = getelementptr inbounds i8, ptr %0, i64 184
  %3 = tail call noundef nonnull align 8 dereferenceable(32) ptr @_ZNSt7__cxx1112basic_stringIcSt11char_traitsIcESaIcEEaSEPKc(ptr noundef nonnull align 8 dereferenceable(32) %2, ptr noundef nonnull @.str.62)
  %4 = getelementptr inbounds i8, ptr %0, i64 216
  %5 = tail call noundef nonnull align 8 dereferenceable(32) ptr @_ZNSt7__cxx1112basic_stringIcSt11char_traitsIcESaIcEEaSEPKc(ptr noundef nonnull align 8 dereferenceable(32) %4, ptr noundef nonnull @.str.63)
  %6 = getelementptr inbounds i8, ptr %0, i64 248
  %7 = tail call noundef nonnull align 8 dereferenceable(32) ptr @_ZNSt7__cxx1112basic_stringIcSt11char_traitsIcESaIcEEaSEPKc(ptr noundef nonnull align 8 dereferenceable(32) %6, ptr noundef nonnull @.str.63)
  %8 = getelementptr inbounds i8, ptr %0, i64 280
  %9 = tail call noundef nonnull align 8 dereferenceable(32) ptr @_ZNSt7__cxx1112basic_stringIcSt11char_traitsIcESaIcEEaSEPKc(ptr noundef nonnull align 8 dereferenceable(32) %8, ptr noundef nonnull @.str.63)
  %10 = getelementptr inbounds i8, ptr %0, i64 312
  %11 = getelementptr inbounds i8, ptr %0, i64 318
  tail call void @llvm.memset.p0.i64(ptr noundef nonnull align 8 dereferenceable(6) %10, i8 0, i64 6, i1 false)
  store i8 1, ptr %11, align 2
  %12 = getelementptr inbounds i8, ptr %0, i64 319
  %13 = getelementptr inbounds i8, ptr %0, i64 328
  tail call void @llvm.memset.p0.i64(ptr noundef nonnull align 1 dereferenceable(7) %12, i8 0, i64 7, i1 false)
  %14 = tail call noundef nonnull align 8 dereferenceable(32) ptr @_ZNSt7__cxx1112basic_stringIcSt11char_traitsIcESaIcEEaSEPKc(ptr noundef nonnull align 8 dereferenceable(32) %13, ptr noundef nonnull @.str.63)
  %15 = getelementptr inbounds i8, ptr %0, i64 360
  %16 = tail call noundef nonnull align 8 dereferenceable(32) ptr @_ZNSt7__cxx1112basic_stringIcSt11char_traitsIcESaIcEEaSEPKc(ptr noundef nonnull align 8 dereferenceable(32) %15, ptr noundef nonnull @.str.63)
  %17 = getelementptr inbounds i8, ptr %0, i64 392
  %18 = tail call noundef nonnull align 8 dereferenceable(32) ptr @_ZNSt7__cxx1112basic_stringIcSt11char_traitsIcESaIcEEaSEPKc(ptr noundef nonnull align 8 dereferenceable(32) %17, ptr noundef nonnull @.str.63)
  %19 = getelementptr inbounds i8, ptr %0, i64 424
  %20 = tail call noundef nonnull align 8 dereferenceable(32) ptr @_ZNSt7__cxx1112basic_stringIcSt11char_traitsIcESaIcEEaSEPKc(ptr noundef nonnull align 8 dereferenceable(32) %19, ptr noundef nonnull @.str.63)
  %21 = getelementptr inbounds i8, ptr %0, i64 326
  store i8 0, ptr %21, align 2
  %22 = getelementptr inbounds i8, ptr %0, i64 327
  store i8 0, ptr %22, align 1
  ret void
}